target datalayout = "e-m:e-p270:32:32-p271:32:32-p272:64:64-i64:64-i128:128-f80:128-n8:16:32:64-S128"
target triple = "x86_64-pc-linux-gnu"

%struct.Argon2_Context = type { ptr, i32, ptr, i32, ptr, i32, ptr, i32, ptr, i32, i32, i32, i32, i32, i32 }

; Function Attrs: alwaysinline nounwind
define internal ptr @memset.inline(ptr nonnull %0, i32 %1, i64 %2) #1 {
  %4 = alloca ptr, align 8
  %5 = alloca i32, align 4
  %6 = alloca i64, align 8
  store ptr %0, ptr %4, align 8
  store i32 %1, ptr %5, align 4
  store i64 %2, ptr %6, align 8
  %7 = load ptr, ptr %4, align 8
  %8 = load i32, ptr %5, align 4
  %9 = load i64, ptr %6, align 8
  %10 = load ptr, ptr %4, align 8
  %11 = call i64 @llvm.objectsize.i64.p0(ptr %10, i1 false, i1 true, i1 true)
  %12 = call ptr @__memset_chk(ptr noundef %7, i32 noundef %8, i64 noundef %9, i64 noundef %11) #9
  ret ptr %12
}

; Function Attrs: nounwind ssp uwtable
define internal i32 @_needs_rehash(ptr noundef %0, i64 noundef %1, i64 noundef %2, i32 noundef %3) #0 {
  %5 = alloca i32, align 4
  %6 = alloca ptr, align 8
  %7 = alloca i64, align 8
  %8 = alloca i64, align 8
  %9 = alloca i32, align 4
  %10 = alloca ptr, align 8
  %11 = alloca %struct.Argon2_Context, align 8
  %12 = alloca i64, align 8
  %13 = alloca i32, align 4
  %14 = alloca i32, align 4
  store ptr %0, ptr %6, align 8
  store i64 %1, ptr %7, align 8
  store i64 %2, ptr %8, align 8
  store i32 %3, ptr %9, align 4
  call void @llvm.lifetime.start.p0(i64 8, ptr %10) #9
  call void @llvm.lifetime.start.p0(i64 96, ptr %11) #9
  call void @llvm.lifetime.start.p0(i64 8, ptr %12) #9
  call void @llvm.lifetime.start.p0(i64 4, ptr %13) #9
  store i32 -1, ptr %13, align 4
  %15 = load ptr, ptr %6, align 8
  %16 = call i64 @strlen(ptr noundef %15) #11
  store i64 %16, ptr %12, align 8
  %17 = load i64, ptr %8, align 8
  %18 = udiv i64 %17, 1024
  store i64 %18, ptr %8, align 8
  %19 = load i64, ptr %7, align 8
  %20 = icmp ugt i64 %19, 4294967295
  br i1 %20, label %27, label %21

21:                                               ; preds = %4
  %22 = load i64, ptr %8, align 8
  %23 = icmp ugt i64 %22, 4294967295
  br i1 %23, label %27, label %24

24:                                               ; preds = %21
  %25 = load i64, ptr %12, align 8
  %26 = icmp uge i64 %25, 128
  br i1 %26, label %27, label %29

27:                                               ; preds = %24, %21, %4
  %28 = call ptr @__errno_location() #10
  store i32 22, ptr %28, align 4
  store i32 -1, ptr %5, align 4
  store i32 1, ptr %14, align 4
  br label %73

29:                                               ; preds = %24
  %30 = call ptr @memset.inline(ptr noundef %11, i32 noundef 0, i64 noundef 96) #9
  %31 = load i64, ptr %12, align 8
  %32 = call noalias ptr @calloc(i64 noundef %31, i64 noundef 1) #12
  store ptr %32, ptr %10, align 8
  %33 = icmp eq ptr %32, null
  br i1 %33, label %34, label %35

34:                                               ; preds = %29
  store i32 -1, ptr %5, align 4
  store i32 1, ptr %14, align 4
  br label %73

35:                                               ; preds = %29
  %36 = load ptr, ptr %10, align 8
  %37 = getelementptr inbounds nuw %struct.Argon2_Context, ptr %11, i32 0, i32 4
  store ptr %36, ptr %37, align 8
  %38 = getelementptr inbounds nuw %struct.Argon2_Context, ptr %11, i32 0, i32 2
  store ptr %36, ptr %38, align 8
  %39 = getelementptr inbounds nuw %struct.Argon2_Context, ptr %11, i32 0, i32 0
  store ptr %36, ptr %39, align 8
  %40 = load i64, ptr %12, align 8
  %41 = trunc i64 %40 to i32
  %42 = getelementptr inbounds nuw %struct.Argon2_Context, ptr %11, i32 0, i32 5
  store i32 %41, ptr %42, align 8
  %43 = getelementptr inbounds nuw %struct.Argon2_Context, ptr %11, i32 0, i32 3
  store i32 %41, ptr %43, align 8
  %44 = getelementptr inbounds nuw %struct.Argon2_Context, ptr %11, i32 0, i32 1
  store i32 %41, ptr %44, align 8
  %45 = getelementptr inbounds nuw %struct.Argon2_Context, ptr %11, i32 0, i32 6
  store ptr null, ptr %45, align 8
  %46 = getelementptr inbounds nuw %struct.Argon2_Context, ptr %11, i32 0, i32 8
  store ptr null, ptr %46, align 8
  %47 = getelementptr inbounds nuw %struct.Argon2_Context, ptr %11, i32 0, i32 7
  store i32 0, ptr %47, align 8
  %48 = getelementptr inbounds nuw %struct.Argon2_Context, ptr %11, i32 0, i32 9
  store i32 0, ptr %48, align 8
  %49 = load ptr, ptr %6, align 8
  %50 = load i32, ptr %9, align 4
  %51 = call i32 @_sodium_argon2_decode_string(ptr noundef %11, ptr noundef %49, i32 noundef %50)
  %52 = icmp ne i32 %51, 0
  br i1 %52, label %53, label %55

53:                                               ; preds = %35
  %54 = call ptr @__errno_location() #10
  store i32 22, ptr %54, align 4
  store i32 -1, ptr %13, align 4
  br label %70

55:                                               ; preds = %35
  %56 = getelementptr inbounds nuw %struct.Argon2_Context, ptr %11, i32 0, i32 10
  %57 = load i32, ptr %56, align 4
  %58 = load i64, ptr %7, align 8
  %59 = trunc i64 %58 to i32
  %60 = icmp ne i32 %57, %59
  br i1 %60, label %67, label %61

61:                                               ; preds = %55
  %62 = getelementptr inbounds nuw %struct.Argon2_Context, ptr %11, i32 0, i32 11
  %63 = load i32, ptr %62, align 8
  %64 = load i64, ptr %8, align 8
  %65 = trunc i64 %64 to i32
  %66 = icmp ne i32 %63, %65
  br i1 %66, label %67, label %68

67:                                               ; preds = %61, %55
  store i32 1, ptr %13, align 4
  br label %69

68:                                               ; preds = %61
  store i32 0, ptr %13, align 4
  br label %69

69:                                               ; preds = %68, %67
  br label %70

70:                                               ; preds = %69, %53
  %71 = load ptr, ptr %10, align 8
  call void @free(ptr noundef %71) #9
  %72 = load i32, ptr %13, align 4
  store i32 %72, ptr %5, align 4
  store i32 1, ptr %14, align 4
  br label %73

73:                                               ; preds = %70, %34, %27
  call void @llvm.lifetime.end.p0(i64 4, ptr %13) #9
  call void @llvm.lifetime.end.p0(i64 8, ptr %12) #9
  call void @llvm.lifetime.end.p0(i64 96, ptr %11) #9
  call void @llvm.lifetime.end.p0(i64 8, ptr %10) #9
  %74 = load i32, ptr %5, align 4
  ret i32 %74
}