; Function Attrs: nounwind ssp uwtable
define internal fastcc range(i32 -1, 2) i32 @_needs_rehash(ptr noundef nonnull %0, i64 noundef %1, i64 noundef %2, i32 noundef range(i32 1, 3) %3) unnamed_addr #1 {
  %5 = alloca %struct.Argon2_Context, align 8
  call void @llvm.lifetime.start.p0(i64 96, ptr nonnull %5) #9
  %6 = tail call i64 @strlen(ptr noundef nonnull dereferenceable(1) %0) #11
  %7 = lshr i64 %2, 10
  %8 = icmp ugt i64 %1, 4294967295
  %9 = icmp ugt i64 %2, 4398046511103
  %or.cond = or i1 %8, %9
  %10 = icmp ugt i64 %6, 127
  %or.cond3 = select i1 %or.cond, i1 true, i1 %10
  br i1 %or.cond3, label %11, label %13

11:                                               ; preds = %4
  %12 = tail call ptr @__errno_location() #10
  store i32 22, ptr %12, align 4
  br label %39

13:                                               ; preds = %4
  %14 = getelementptr inbounds nuw i8, ptr %5, i64 8
  call void @llvm.memset.p0.i64(ptr noundef nonnull align 8 dereferenceable(96) %14, i8 noundef 0, i64 noundef 88, i1 noundef false) #9
  %15 = tail call noalias ptr @calloc(i64 noundef %6, i64 noundef 1) #12
  %16 = icmp eq ptr %15, null
  br i1 %16, label %39, label %17

17:                                               ; preds = %13
  %18 = getelementptr inbounds nuw i8, ptr %5, i64 32
  store ptr %15, ptr %18, align 8
  %19 = getelementptr inbounds nuw i8, ptr %5, i64 16
  store ptr %15, ptr %19, align 8
  store ptr %15, ptr %5, align 8
  %20 = trunc nuw nsw i64 %6 to i32
  %21 = getelementptr inbounds nuw i8, ptr %5, i64 40
  store i32 %20, ptr %21, align 8
  %22 = getelementptr inbounds nuw i8, ptr %5, i64 24
  store i32 %20, ptr %22, align 8
  %23 = getelementptr inbounds nuw i8, ptr %5, i64 8
  store i32 %20, ptr %23, align 8
  %24 = getelementptr inbounds nuw i8, ptr %5, i64 48
  store ptr null, ptr %24, align 8
  %25 = getelementptr inbounds nuw i8, ptr %5, i64 64
  store ptr null, ptr %25, align 8
  %26 = getelementptr inbounds nuw i8, ptr %5, i64 56
  store i32 0, ptr %26, align 8
  %27 = getelementptr inbounds nuw i8, ptr %5, i64 72
  store i32 0, ptr %27, align 8
  %28 = call i32 @_sodium_argon2_decode_string(ptr noundef nonnull %5, ptr noundef nonnull %0, i32 noundef %3) #9
  %.not = icmp eq i32 %28, 0
  br i1 %.not, label %31, label %29

29:                                               ; preds = %17
  %30 = tail call ptr @__errno_location() #10
  store i32 22, ptr %30, align 4
  br label %38

31:                                               ; preds = %17
  %32 = getelementptr inbounds nuw i8, ptr %5, i64 76
  %33 = load i32, ptr %32, align 4
  %34 = trunc nuw i64 %1 to i32
  %.not22 = icmp ne i32 %33, %34
  %35 = getelementptr inbounds nuw i8, ptr %5, i64 80
  %36 = load i32, ptr %35, align 8
  %37 = trunc nuw i64 %7 to i32
  %.not23 = icmp ne i32 %36, %37
  %or.cond26.not = select i1 %.not22, i1 true, i1 %.not23
  %spec.select = zext i1 %or.cond26.not to i32
  br label %38

38:                                               ; preds = %31, %29
  %.0 = phi i32 [ -1, %29 ], [ %spec.select, %31 ]
  call void @free(ptr noundef nonnull %15) #9
  br label %39

39:                                               ; preds = %13, %38, %11
  %.017 = phi i32 [ -1, %11 ], [ %.0, %38 ], [ -1, %13 ]
  call void @llvm.lifetime.end.p0(i64 96, ptr nonnull %5) #9
  ret i32 %.017
}